target datalayout = "e-m:e-p270:32:32-p271:32:32-p272:64:64-i64:64-i128:128-f80:128-n8:16:32:64-S128"
target triple = "x86_64-pc-linux-gnu"

%"struct.boost::urls::url_base::op_t" = type { ptr, ptr, ptr, ptr }
%"class.boost::urls::url_view_base" = type { [8 x i8], %"struct.boost::urls::detail::url_impl", ptr }
%"struct.boost::urls::detail::url_impl" = type <{ ptr, [8 x i64], [7 x i64], i64, i64, [16 x i8], i16, [2 x i8], i32, i16, i8, [5 x i8] }>

@_ZN5boost4urls8url_base4op_tD1Ev = unnamed_addr alias void (ptr), ptr @_ZN5boost4urls8url_base4op_tD2Ev
@_ZN5boost4urls8url_base4op_tC1ERS1_PNS_4core17basic_string_viewIcEES7_ = unnamed_addr alias void (ptr, ptr, ptr, ptr), ptr @_ZN5boost4urls8url_base4op_tC2ERS1_PNS_4core17basic_string_viewIcEES7_

; Function Attrs: mustprogress uwtable
define noundef ptr @_ZN5boost4urls8url_base11resize_implEimRNS1_4op_tE(ptr noundef nonnull align 8 dereferenceable(216) %0, i32 noundef %1, i64 noundef %2, ptr noundef nonnull align 8 dereferenceable(32) %3) #5 align 2 {
  %5 = alloca ptr, align 8
  %6 = alloca i32, align 4
  %7 = alloca i64, align 8
  %8 = alloca ptr, align 8
  store ptr %0, ptr %5, align 8, !tbaa !7
  store i32 %1, ptr %6, align 4, !tbaa !3
  store i64 %2, ptr %7, align 8, !tbaa !21
  store ptr %3, ptr %8, align 8, !tbaa !7
  %9 = load ptr, ptr %5, align 8
  %10 = load i32, ptr %6, align 4, !tbaa !3
  %11 = load i32, ptr %6, align 4, !tbaa !3
  %12 = add nsw i32 %11, 1
  %13 = load i64, ptr %7, align 8, !tbaa !21
  %14 = load ptr, ptr %8, align 8, !tbaa !7
  %15 = call noundef ptr @_ZN5boost4urls8url_base11resize_implEiimRNS1_4op_tE(ptr noundef nonnull align 8 dereferenceable(216) %9, i32 noundef %10, i32 noundef %12, i64 noundef %13, ptr noundef nonnull align 8 dereferenceable(32) %14)
  ret ptr %15
}

; Function Attrs: mustprogress nounwind uwtable
define noundef nonnull align 8 dereferenceable(216) ptr @_ZN5boost4urls8url_base15remove_passwordEv(ptr noundef nonnull align 8 dereferenceable(216) %0) #2 align 2 personality ptr @__gxx_personality_v0 {
  %2 = alloca ptr, align 8
  %3 = alloca ptr, align 8
  %4 = alloca i64, align 8
  %5 = alloca i32, align 4
  %6 = alloca %"struct.boost::urls::url_base::op_t", align 8
  %7 = alloca ptr, align 8
  store ptr %0, ptr %3, align 8, !tbaa !7
  %8 = load ptr, ptr %3, align 8
  call void @llvm.lifetime.start.p0(i64 8, ptr %4) #9
  %9 = getelementptr inbounds i8, ptr %8, i64 8
  %10 = getelementptr inbounds nuw %"class.boost::urls::url_view_base", ptr %9, i32 0, i32 1
  %11 = call noundef i64 @_ZNK5boost4urls6detail8url_impl3lenEi(ptr noundef nonnull align 8 dereferenceable(171) %10, i32 noundef 1) #9
  store i64 %11, ptr %4, align 8, !tbaa !21
  %12 = load i64, ptr %4, align 8, !tbaa !21
  %13 = icmp ult i64 %12, 2
  br i1 %13, label %14, label %15

14:                                               ; preds = %1
  store ptr %8, ptr %2, align 8
  store i32 1, ptr %5, align 4
  br label %24

15:                                               ; preds = %1
  call void @llvm.lifetime.start.p0(i64 32, ptr %6) #9
  call void @_ZN5boost4urls8url_base4op_tC1ERS1_PNS_4core17basic_string_viewIcEES7_(ptr noundef nonnull align 8 dereferenceable(32) %6, ptr noundef nonnull align 8 dereferenceable(216) %8, ptr noundef null, ptr noundef null) #9
  call void @llvm.lifetime.start.p0(i64 8, ptr %7) #9
  %16 = invoke noundef ptr @_ZN5boost4urls8url_base11resize_implEimRNS1_4op_tE(ptr noundef nonnull align 8 dereferenceable(216) %8, i32 noundef 1, i64 noundef 1, ptr noundef nonnull align 8 dereferenceable(32) %6)
          to label %17 unwind label %26

17:                                               ; preds = %15
  store ptr %16, ptr %7, align 8, !tbaa !7
  %18 = load ptr, ptr %7, align 8, !tbaa !7
  %19 = getelementptr inbounds i8, ptr %18, i64 0
  store i8 64, ptr %19, align 1, !tbaa !32
  %20 = getelementptr inbounds i8, ptr %8, i64 8
  %21 = getelementptr inbounds nuw %"class.boost::urls::url_view_base", ptr %20, i32 0, i32 1
  %22 = getelementptr inbounds nuw %"struct.boost::urls::detail::url_impl", ptr %21, i32 0, i32 2
  %23 = getelementptr inbounds [7 x i64], ptr %22, i64 0, i64 1
  store i64 0, ptr %23, align 8, !tbaa !21
  store ptr %8, ptr %2, align 8
  store i32 1, ptr %5, align 4
  call void @llvm.lifetime.end.p0(i64 8, ptr %7) #9
  call void @_ZN5boost4urls8url_base4op_tD1Ev(ptr noundef nonnull align 8 dereferenceable(32) %6) #9
  call void @llvm.lifetime.end.p0(i64 32, ptr %6) #9
  br label %24

24:                                               ; preds = %17, %14
  call void @llvm.lifetime.end.p0(i64 8, ptr %4) #9
  %25 = load ptr, ptr %2, align 8
  ret ptr %25

26:                                               ; preds = %15
  %27 = landingpad { ptr, i32 }
          catch ptr null
  %28 = extractvalue { ptr, i32 } %27, 0
  call void @__clang_call_terminate(ptr %28) #21
  unreachable
}