; Function Attrs: mustprogress nounwind uwtable
define noundef nonnull align 8 dereferenceable(216) ptr @_ZN5boost4urls8url_base15remove_passwordEv(ptr noundef nonnull returned align 8 dereferenceable(216) %0) local_unnamed_addr #6 align 2 personality ptr @__gxx_personality_v0 {
  %2 = alloca %"struct.boost::urls::url_base::op_t", align 8
  %3 = getelementptr inbounds i8, ptr %0, i64 16
  %4 = tail call noundef i64 @_ZNK5boost4urls6detail8url_impl3lenEi(ptr noundef nonnull align 8 dereferenceable(171) %3, i32 noundef 1) #30
  %5 = icmp ult i64 %4, 2
  br i1 %5, label %9, label %6

6:                                                ; preds = %1
  call void @llvm.lifetime.start.p0(i64 32, ptr nonnull %2) #30
  call void @_ZN5boost4urls8url_base4op_tC1ERS1_PNS_4core17basic_string_viewIcEES7_(ptr noundef nonnull align 8 dereferenceable(32) %2, ptr noundef nonnull align 8 dereferenceable(216) %0, ptr noundef null, ptr noundef null) #30
  %7 = invoke noundef ptr @_ZN5boost4urls8url_base11resize_implEiimRNS1_4op_tE(ptr noundef nonnull align 8 dereferenceable(216) %0, i32 noundef 1, i32 noundef 2, i64 noundef 1, ptr noundef nonnull align 8 dereferenceable(32) %2)
          to label %_ZN5boost4urls8url_base11resize_implEimRNS1_4op_tE.exit unwind label %10

_ZN5boost4urls8url_base11resize_implEimRNS1_4op_tE.exit: ; preds = %6
  store i8 64, ptr %7, align 1, !tbaa !25
  %8 = getelementptr inbounds i8, ptr %0, i64 96
  store i64 0, ptr %8, align 8, !tbaa !14
  call void @_ZN5boost4urls8url_base4op_tD1Ev(ptr noundef nonnull align 8 dereferenceable(32) %2) #30
  call void @llvm.lifetime.end.p0(i64 32, ptr nonnull %2) #30
  br label %9

9:                                                ; preds = %1, %_ZN5boost4urls8url_base11resize_implEimRNS1_4op_tE.exit
  ret ptr %0

10:                                               ; preds = %6
  %11 = landingpad { ptr, i32 }
          catch ptr null
  %12 = extractvalue { ptr, i32 } %11, 0
  call void @__clang_call_terminate(ptr %12) #31
  unreachable
}